; Function Attrs: inlinehint nounwind uwtable
define internal fastcc void @PyStgInfo_FromObject(ptr noundef readonly captures(none) %0, ptr %.8.val, ptr noundef nonnull writeonly captures(none) initializes((0, 8)) %1) unnamed_addr #3 {
  store ptr null, ptr %1, align 8, !tbaa !46
  %3 = getelementptr inbounds nuw i8, ptr %0, i64 40
  %4 = load ptr, ptr %3, align 8, !tbaa !28
  %5 = tail call i32 @PyObject_IsInstance(ptr noundef %.8.val, ptr noundef %4) #17
  %.not.i = icmp eq i32 %5, 0
  br i1 %.not.i, label %_stginfo_from_type.exit, label %6

6:                                                ; preds = %2
  %7 = load ptr, ptr %3, align 8, !tbaa !28
  %8 = tail call ptr @PyObject_GetTypeData(ptr noundef %.8.val, ptr noundef %7) #17
  %9 = load i32, ptr %8, align 8, !tbaa !29
  %.not8.i = icmp eq i32 %9, 0
  br i1 %.not8.i, label %_stginfo_from_type.exit, label %10

10:                                               ; preds = %6
  store ptr %8, ptr %1, align 8, !tbaa !46
  br label %_stginfo_from_type.exit

_stginfo_from_type.exit:                          ; preds = %2, %6, %10
  ret void
}